; Function Attrs: mustprogress nofree norecurse nosync nounwind willreturn memory(read, argmem: readwrite, inaccessiblemem: none) uwtable
define noundef i32 @_Z30gmx_parallel_3dfft_real_limitsP18gmx_parallel_3dfftPiS1_S1_(ptr noundef readonly captures(none) %0, ptr noundef writeonly captures(none) initializes((0, 12)) %1, ptr noundef writeonly captures(none) initializes((0, 12)) %2, ptr noundef writeonly captures(none) initializes((0, 12)) %3) local_unnamed_addr #3 {
  %5 = load ptr, ptr %0, align 8, !tbaa !13
  %6 = getelementptr inbounds nuw i8, ptr %2, i64 8
  store i32 0, ptr %6, align 4, !tbaa !4
  %7 = getelementptr inbounds nuw i8, ptr %5, i64 152
  %8 = load i32, ptr %7, align 8, !tbaa !4
  %9 = getelementptr inbounds nuw i8, ptr %2, i64 4
  store i32 %8, ptr %9, align 4, !tbaa !4
  %10 = getelementptr inbounds nuw i8, ptr %5, i64 164
  %11 = load i32, ptr %10, align 4, !tbaa !4
  store i32 %11, ptr %2, align 4, !tbaa !4
  %12 = getelementptr inbounds nuw i8, ptr %5, i64 284
  %13 = load i32, ptr %12, align 4, !tbaa !4
  %14 = getelementptr inbounds nuw i8, ptr %1, i64 8
  store i32 %13, ptr %14, align 4, !tbaa !4
  %15 = getelementptr inbounds nuw i8, ptr %5, i64 128
  %16 = load i32, ptr %15, align 8, !tbaa !4
  %17 = getelementptr inbounds nuw i8, ptr %1, i64 4
  store i32 %16, ptr %17, align 4, !tbaa !4
  %18 = getelementptr inbounds nuw i8, ptr %5, i64 140
  %19 = load i32, ptr %18, align 4, !tbaa !4
  store i32 %19, ptr %1, align 4, !tbaa !4
  %20 = getelementptr inbounds nuw i8, ptr %5, i64 304
  %21 = load i32, ptr %20, align 8, !tbaa !17
  %22 = and i32 %21, 6
  %or.cond.not.i = icmp eq i32 %22, 4
  %23 = getelementptr inbounds nuw i8, ptr %5, i64 272
  %24 = load i32, ptr %23, align 8, !tbaa !4
  %25 = zext i1 %or.cond.not.i to i32
  %.sink.i = shl nsw i32 %24, %25
  %26 = getelementptr inbounds nuw i8, ptr %3, i64 8
  store i32 %.sink.i, ptr %26, align 4, !tbaa !4
  %27 = load i32, ptr %15, align 8, !tbaa !4
  %28 = getelementptr inbounds nuw i8, ptr %3, i64 4
  store i32 %27, ptr %28, align 4, !tbaa !4
  %29 = load i32, ptr %18, align 4, !tbaa !4
  store i32 %29, ptr %3, align 4, !tbaa !4
  ret i32 0
}